target datalayout = "e-m:e-p270:32:32-p271:32:32-p272:64:64-i64:64-i128:128-f80:128-n8:16:32:64-S128"
target triple = "x86_64-pc-linux-gnu"

%struct._object = type { %union.anon, ptr }
%union.anon = type { i64 }
%struct._typeobject = type { %struct.PyVarObject, ptr, i64, i64, ptr, i64, ptr, ptr, ptr, ptr, ptr, ptr, ptr, ptr, ptr, ptr, ptr, ptr, ptr, i64, ptr, ptr, ptr, ptr, i64, ptr, ptr, ptr, ptr, ptr, ptr, ptr, ptr, ptr, i64, ptr, ptr, ptr, ptr, ptr, ptr, ptr, ptr, ptr, ptr, ptr, i32, ptr, ptr, i8, i16 }
%struct.PyVarObject = type { %struct._object, i64 }
%struct.PyAsyncMethods = type { ptr, ptr, ptr, ptr }
%struct._err_stackitem = type { ptr, ptr }
%union._PyStackRef = type { i64 }
%struct._PyGenObject = type { %struct._object, ptr, ptr, ptr, %struct._err_stackitem, ptr, i8, i8, i8, i8, %struct._PyInterpreterFrame }
%struct._PyInterpreterFrame = type { %union._PyStackRef, ptr, %union._PyStackRef, ptr, ptr, ptr, ptr, ptr, ptr, i16, i8, i8, [1 x %union._PyStackRef] }
%struct.anon = type { i32, i32 }
%struct.PyCodeObject = type { %struct.PyVarObject, ptr, ptr, ptr, i32, i32, i32, i32, i32, i32, i32, i32, i32, i32, i32, i32, ptr, ptr, ptr, ptr, ptr, ptr, ptr, ptr, ptr, i64, ptr, i64, i32, ptr, [1 x i8] }

@PyExc_TypeError = external global ptr, align 8
@.str.1 = private unnamed_addr constant [33 x i8] c"__await__() returned a coroutine\00", align 1
@.str.2 = private unnamed_addr constant [51 x i8] c"__await__() returned non-iterator of type '%.100s'\00", align 1
@.str.3 = private unnamed_addr constant [33 x i8] c"'%.100s' object can't be awaited\00", align 1

; Function Attrs: inlinehint nounwind uwtable
define internal ptr @_PyFrame_GetCode(ptr noundef %0) #2 {
  %2 = alloca ptr, align 8
  %3 = alloca ptr, align 8
  store ptr %0, ptr %2, align 8, !tbaa !37
  call void @llvm.lifetime.start.p0(i64 8, ptr %3) #7
  %4 = load ptr, ptr %2, align 8, !tbaa !37
  %5 = getelementptr inbounds nuw %struct._PyInterpreterFrame, ptr %4, i32 0, i32 0
  %6 = load i64, ptr %5, align 8, !tbaa !13
  %7 = inttoptr i64 %6 to ptr
  store ptr %7, ptr %3, align 8, !tbaa !11
  %8 = load ptr, ptr %3, align 8, !tbaa !11
  call void @llvm.lifetime.end.p0(i64 8, ptr %3) #7
  ret ptr %8
}

; Function Attrs: alwaysinline nounwind uwtable
define internal i32 @_Py_IsImmortal(ptr noundef %0) #3 {
  %2 = alloca ptr, align 8
  store ptr %0, ptr %2, align 8, !tbaa !11
  %3 = load ptr, ptr %2, align 8, !tbaa !11
  %4 = getelementptr inbounds nuw %struct._object, ptr %3, i32 0, i32 0
  %5 = getelementptr inbounds nuw %struct.anon, ptr %4, i32 0, i32 0
  %6 = load i32, ptr %5, align 8, !tbaa !13
  %7 = icmp slt i32 %6, 0
  %8 = zext i1 %7 to i32
  ret i32 %8
}

; Function Attrs: alwaysinline nounwind uwtable
define internal void @Py_INCREF(ptr noundef %0) #3 {
  %2 = alloca ptr, align 8
  %3 = alloca i32, align 4
  %4 = alloca i32, align 4
  store ptr %0, ptr %2, align 8, !tbaa !11
  call void @llvm.lifetime.start.p0(i64 4, ptr %3) #7
  %5 = load ptr, ptr %2, align 8, !tbaa !11
  %6 = getelementptr inbounds nuw %struct._object, ptr %5, i32 0, i32 0
  %7 = getelementptr inbounds nuw %struct.anon, ptr %6, i32 0, i32 0
  %8 = load i32, ptr %7, align 8, !tbaa !13
  store i32 %8, ptr %3, align 4, !tbaa !14
  %9 = load i32, ptr %3, align 4, !tbaa !14
  %10 = icmp slt i32 %9, 0
  br i1 %10, label %11, label %12

11:                                               ; preds = %1
  store i32 1, ptr %4, align 4
  br label %18

12:                                               ; preds = %1
  %13 = load i32, ptr %3, align 4, !tbaa !14
  %14 = add i32 %13, 1
  %15 = load ptr, ptr %2, align 8, !tbaa !11
  %16 = getelementptr inbounds nuw %struct._object, ptr %15, i32 0, i32 0
  %17 = getelementptr inbounds nuw %struct.anon, ptr %16, i32 0, i32 0
  store i32 %14, ptr %17, align 8, !tbaa !13
  store i32 0, ptr %4, align 4
  br label %18

18:                                               ; preds = %12, %11
  call void @llvm.lifetime.end.p0(i64 4, ptr %3) #7
  %19 = load i32, ptr %4, align 4
  switch i32 %19, label %21 [
    i32 0, label %20
    i32 1, label %20
  ]

20:                                               ; preds = %18, %18
  ret void

21:                                               ; preds = %18
  unreachable
}

; Function Attrs: inlinehint nounwind uwtable
define internal ptr @_PyGen_GetCode(ptr noundef %0) #2 {
  %2 = alloca ptr, align 8
  store ptr %0, ptr %2, align 8, !tbaa !4
  %3 = load ptr, ptr %2, align 8, !tbaa !4
  %4 = getelementptr inbounds nuw %struct._PyGenObject, ptr %3, i32 0, i32 10
  %5 = call ptr @_PyFrame_GetCode(ptr noundef %4)
  ret ptr %5
}

; Function Attrs: alwaysinline nounwind uwtable
define internal void @Py_DECREF(ptr noundef %0) #3 {
  %2 = alloca ptr, align 8
  store ptr %0, ptr %2, align 8, !tbaa !11
  %3 = load ptr, ptr %2, align 8, !tbaa !11
  %4 = call i32 @_Py_IsImmortal(ptr noundef %3)
  %5 = icmp ne i32 %4, 0
  br i1 %5, label %6, label %7

6:                                                ; preds = %1
  br label %16

7:                                                ; preds = %1
  %8 = load ptr, ptr %2, align 8, !tbaa !11
  %9 = getelementptr inbounds nuw %struct._object, ptr %8, i32 0, i32 0
  %10 = getelementptr inbounds nuw %struct.anon, ptr %9, i32 0, i32 0
  %11 = load i32, ptr %10, align 8, !tbaa !13
  %12 = add i32 %11, -1
  store i32 %12, ptr %10, align 8, !tbaa !13
  %13 = icmp eq i32 %12, 0
  br i1 %13, label %14, label %16

14:                                               ; preds = %7
  %15 = load ptr, ptr %2, align 8, !tbaa !11
  call void @_Py_Dealloc(ptr noundef %15)
  br label %16

16:                                               ; preds = %6, %14, %7
  ret void
}

; Function Attrs: inlinehint nounwind uwtable
define internal ptr @_Py_TYPE(ptr noundef %0) #2 {
  %2 = alloca ptr, align 8
  store ptr %0, ptr %2, align 8, !tbaa !11
  %3 = load ptr, ptr %2, align 8, !tbaa !11
  %4 = getelementptr inbounds nuw %struct._object, ptr %3, i32 0, i32 1
  %5 = load ptr, ptr %4, align 8, !tbaa !92
  ret ptr %5
}

; Function Attrs: inlinehint nounwind uwtable
define internal ptr @_Py_NewRef(ptr noundef %0) #2 {
  %2 = alloca ptr, align 8
  store ptr %0, ptr %2, align 8, !tbaa !11
  %3 = load ptr, ptr %2, align 8, !tbaa !11
  call void @Py_INCREF(ptr noundef %3)
  %4 = load ptr, ptr %2, align 8, !tbaa !11
  ret ptr %4
}

; Function Attrs: nounwind uwtable
define internal i32 @gen_is_coroutine(ptr noundef %0) #0 {
  %2 = alloca i32, align 4
  %3 = alloca ptr, align 8
  %4 = alloca ptr, align 8
  %5 = alloca i32, align 4
  store ptr %0, ptr %3, align 8, !tbaa !11
  %6 = load ptr, ptr %3, align 8, !tbaa !11
  %7 = call i32 @Py_IS_TYPE(ptr noundef %6, ptr noundef @PyGen_Type)
  %8 = icmp ne i32 %7, 0
  br i1 %8, label %9, label %22

9:                                                ; preds = %1
  call void @llvm.lifetime.start.p0(i64 8, ptr %4) #7
  %10 = load ptr, ptr %3, align 8, !tbaa !11
  %11 = call ptr @_PyGen_GetCode(ptr noundef %10)
  store ptr %11, ptr %4, align 8, !tbaa !9
  %12 = load ptr, ptr %4, align 8, !tbaa !9
  %13 = getelementptr inbounds nuw %struct.PyCodeObject, ptr %12, i32 0, i32 4
  %14 = load i32, ptr %13, align 8, !tbaa !32
  %15 = and i32 %14, 256
  %16 = icmp ne i32 %15, 0
  br i1 %16, label %17, label %18

17:                                               ; preds = %9
  store i32 1, ptr %2, align 4
  store i32 1, ptr %5, align 4
  br label %19

18:                                               ; preds = %9
  store i32 0, ptr %5, align 4
  br label %19

19:                                               ; preds = %18, %17
  call void @llvm.lifetime.end.p0(i64 8, ptr %4) #7
  %20 = load i32, ptr %5, align 4
  switch i32 %20, label %25 [
    i32 0, label %21
    i32 1, label %23
  ]

21:                                               ; preds = %19
  br label %22

22:                                               ; preds = %21, %1
  store i32 0, ptr %2, align 4
  br label %23

23:                                               ; preds = %22, %19
  %24 = load i32, ptr %2, align 4
  ret i32 %24

25:                                               ; preds = %19
  unreachable
}

; Function Attrs: inlinehint nounwind uwtable
define internal i32 @Py_IS_TYPE(ptr noundef %0, ptr noundef %1) #2 {
  %3 = alloca ptr, align 8
  %4 = alloca ptr, align 8
  store ptr %0, ptr %3, align 8, !tbaa !11
  store ptr %1, ptr %4, align 8, !tbaa !36
  %5 = load ptr, ptr %3, align 8, !tbaa !11
  %6 = call ptr @_Py_TYPE(ptr noundef %5)
  %7 = load ptr, ptr %4, align 8, !tbaa !36
  %8 = icmp eq ptr %6, %7
  %9 = zext i1 %8 to i32
  ret i32 %9
}

; Function Attrs: nounwind uwtable
define dso_local ptr @_PyCoro_GetAwaitableIter(ptr noundef %0) #0 {
  %2 = alloca ptr, align 8
  %3 = alloca ptr, align 8
  %4 = alloca ptr, align 8
  %5 = alloca ptr, align 8
  %6 = alloca i32, align 4
  %7 = alloca ptr, align 8
  %8 = alloca ptr, align 8
  %9 = alloca ptr, align 8
  %10 = alloca ptr, align 8
  %11 = alloca ptr, align 8
  store ptr %0, ptr %3, align 8, !tbaa !11
  call void @llvm.lifetime.start.p0(i64 8, ptr %4) #7
  store ptr null, ptr %4, align 8, !tbaa !50
  call void @llvm.lifetime.start.p0(i64 8, ptr %5) #7
  %12 = load ptr, ptr %3, align 8, !tbaa !11
  %13 = call i32 @Py_IS_TYPE(ptr noundef %12, ptr noundef @PyCoro_Type)
  %14 = icmp ne i32 %13, 0
  br i1 %14, label %19, label %15

15:                                               ; preds = %1
  %16 = load ptr, ptr %3, align 8, !tbaa !11
  %17 = call i32 @gen_is_coroutine(ptr noundef %16)
  %18 = icmp ne i32 %17, 0
  br i1 %18, label %19, label %22

19:                                               ; preds = %15, %1
  %20 = load ptr, ptr %3, align 8, !tbaa !11
  %21 = call ptr @_Py_NewRef(ptr noundef %20)
  store ptr %21, ptr %2, align 8
  store i32 1, ptr %6, align 4
  br label %97

22:                                               ; preds = %15
  %23 = load ptr, ptr %3, align 8, !tbaa !11
  %24 = call ptr @_Py_TYPE(ptr noundef %23)
  store ptr %24, ptr %5, align 8, !tbaa !36
  %25 = load ptr, ptr %5, align 8, !tbaa !36
  %26 = getelementptr inbounds nuw %struct._typeobject, ptr %25, i32 0, i32 8
  %27 = load ptr, ptr %26, align 8, !tbaa !84
  %28 = icmp ne ptr %27, null
  br i1 %28, label %29, label %35

29:                                               ; preds = %22
  %30 = load ptr, ptr %5, align 8, !tbaa !36
  %31 = getelementptr inbounds nuw %struct._typeobject, ptr %30, i32 0, i32 8
  %32 = load ptr, ptr %31, align 8, !tbaa !84
  %33 = getelementptr inbounds nuw %struct.PyAsyncMethods, ptr %32, i32 0, i32 0
  %34 = load ptr, ptr %33, align 8, !tbaa !89
  store ptr %34, ptr %4, align 8, !tbaa !50
  br label %35

35:                                               ; preds = %29, %22
  %36 = load ptr, ptr %4, align 8, !tbaa !50
  %37 = icmp ne ptr %36, null
  br i1 %37, label %38, label %91

38:                                               ; preds = %35
  call void @llvm.lifetime.start.p0(i64 8, ptr %7) #7
  %39 = load ptr, ptr %4, align 8, !tbaa !50
  %40 = load ptr, ptr %3, align 8, !tbaa !11
  %41 = call ptr %39(ptr noundef %40)
  store ptr %41, ptr %7, align 8, !tbaa !11
  %42 = load ptr, ptr %7, align 8, !tbaa !11
  %43 = icmp ne ptr %42, null
  br i1 %43, label %44, label %89

44:                                               ; preds = %38
  %45 = load ptr, ptr %7, align 8, !tbaa !11
  %46 = call i32 @Py_IS_TYPE(ptr noundef %45, ptr noundef @PyCoro_Type)
  %47 = icmp ne i32 %46, 0
  br i1 %47, label %52, label %48

48:                                               ; preds = %44
  %49 = load ptr, ptr %7, align 8, !tbaa !11
  %50 = call i32 @gen_is_coroutine(ptr noundef %49)
  %51 = icmp ne i32 %50, 0
  br i1 %51, label %52, label %65

52:                                               ; preds = %48, %44
  %53 = load ptr, ptr @PyExc_TypeError, align 8, !tbaa !11
  call void @PyErr_SetString(ptr noundef %53, ptr noundef @.str.1)
  br label %54

54:                                               ; preds = %52
  call void @llvm.lifetime.start.p0(i64 8, ptr %8) #7
  store ptr %7, ptr %8, align 8, !tbaa !43
  call void @llvm.lifetime.start.p0(i64 8, ptr %9) #7
  %55 = load ptr, ptr %8, align 8, !tbaa !43
  %56 = load ptr, ptr %55, align 8, !tbaa !11
  store ptr %56, ptr %9, align 8, !tbaa !11
  %57 = load ptr, ptr %9, align 8, !tbaa !11
  %58 = icmp ne ptr %57, null
  br i1 %58, label %59, label %62

59:                                               ; preds = %54
  %60 = load ptr, ptr %8, align 8, !tbaa !43
  store ptr null, ptr %60, align 8, !tbaa !11
  %61 = load ptr, ptr %9, align 8, !tbaa !11
  call void @Py_DECREF(ptr noundef %61)
  br label %62

62:                                               ; preds = %59, %54
  call void @llvm.lifetime.end.p0(i64 8, ptr %9) #7
  call void @llvm.lifetime.end.p0(i64 8, ptr %8) #7
  br label %63

63:                                               ; preds = %62
  br label %64

64:                                               ; preds = %63
  br label %88

65:                                               ; preds = %48
  %66 = load ptr, ptr %7, align 8, !tbaa !11
  %67 = call i32 @PyIter_Check(ptr noundef %66)
  %68 = icmp ne i32 %67, 0
  br i1 %68, label %87, label %69

69:                                               ; preds = %65
  %70 = load ptr, ptr @PyExc_TypeError, align 8, !tbaa !11
  %71 = load ptr, ptr %7, align 8, !tbaa !11
  %72 = call ptr @_Py_TYPE(ptr noundef %71)
  %73 = getelementptr inbounds nuw %struct._typeobject, ptr %72, i32 0, i32 1
  %74 = load ptr, ptr %73, align 8, !tbaa !91
  %75 = call ptr (ptr, ptr, ...) @PyErr_Format(ptr noundef %70, ptr noundef @.str.2, ptr noundef %74)
  br label %76

76:                                               ; preds = %69
  call void @llvm.lifetime.start.p0(i64 8, ptr %10) #7
  store ptr %7, ptr %10, align 8, !tbaa !43
  call void @llvm.lifetime.start.p0(i64 8, ptr %11) #7
  %77 = load ptr, ptr %10, align 8, !tbaa !43
  %78 = load ptr, ptr %77, align 8, !tbaa !11
  store ptr %78, ptr %11, align 8, !tbaa !11
  %79 = load ptr, ptr %11, align 8, !tbaa !11
  %80 = icmp ne ptr %79, null
  br i1 %80, label %81, label %84

81:                                               ; preds = %76
  %82 = load ptr, ptr %10, align 8, !tbaa !43
  store ptr null, ptr %82, align 8, !tbaa !11
  %83 = load ptr, ptr %11, align 8, !tbaa !11
  call void @Py_DECREF(ptr noundef %83)
  br label %84

84:                                               ; preds = %81, %76
  call void @llvm.lifetime.end.p0(i64 8, ptr %11) #7
  call void @llvm.lifetime.end.p0(i64 8, ptr %10) #7
  br label %85

85:                                               ; preds = %84
  br label %86

86:                                               ; preds = %85
  br label %87

87:                                               ; preds = %86, %65
  br label %88

88:                                               ; preds = %87, %64
  br label %89

89:                                               ; preds = %88, %38
  %90 = load ptr, ptr %7, align 8, !tbaa !11
  store ptr %90, ptr %2, align 8
  store i32 1, ptr %6, align 4
  call void @llvm.lifetime.end.p0(i64 8, ptr %7) #7
  br label %97

91:                                               ; preds = %35
  %92 = load ptr, ptr @PyExc_TypeError, align 8, !tbaa !11
  %93 = load ptr, ptr %5, align 8, !tbaa !36
  %94 = getelementptr inbounds nuw %struct._typeobject, ptr %93, i32 0, i32 1
  %95 = load ptr, ptr %94, align 8, !tbaa !91
  %96 = call ptr (ptr, ptr, ...) @PyErr_Format(ptr noundef %92, ptr noundef @.str.3, ptr noundef %95)
  store ptr null, ptr %2, align 8
  store i32 1, ptr %6, align 4
  br label %97

97:                                               ; preds = %91, %89, %19
  call void @llvm.lifetime.end.p0(i64 8, ptr %5) #7
  call void @llvm.lifetime.end.p0(i64 8, ptr %4) #7
  %98 = load ptr, ptr %2, align 8
  ret ptr %98
}