; Function Attrs: nounwind uwtable
define dso_local ptr @_PyCoro_GetAwaitableIter(ptr noundef %0) local_unnamed_addr #2 {
  %2 = getelementptr i8, ptr %0, i64 8
  %.val43 = load ptr, ptr %2, align 8, !tbaa !20
  %.not = icmp eq ptr %.val43, @PyCoro_Type
  br i1 %.not, label %gen_is_coroutine.exit, label %3

3:                                                ; preds = %1
  %.not.i44 = icmp eq ptr %.val43, @PyGen_Type
  br i1 %.not.i44, label %4, label %14

4:                                                ; preds = %3
  %5 = getelementptr i8, ptr %0, i64 72
  %.val.i = load i64, ptr %5, align 8, !tbaa !4
  %6 = inttoptr i64 %.val.i to ptr
  %7 = getelementptr inbounds nuw i8, ptr %6, i64 48
  %8 = load i32, ptr %7, align 8, !tbaa !24
  %9 = and i32 %8, 256
  %.not5.not.i = icmp eq i32 %9, 0
  br i1 %.not5.not.i, label %14, label %gen_is_coroutine.exit

gen_is_coroutine.exit:                            ; preds = %4, %1
  %10 = load i32, ptr %0, align 8, !tbaa !4
  %11 = icmp slt i32 %10, 0
  br i1 %11, label %_Py_NewRef.exit, label %12

12:                                               ; preds = %gen_is_coroutine.exit
  %13 = add nuw i32 %10, 1
  store i32 %13, ptr %0, align 8, !tbaa !4
  br label %_Py_NewRef.exit

14:                                               ; preds = %3, %4
  %15 = getelementptr inbounds nuw i8, ptr %.val43, i64 80
  %16 = load ptr, ptr %15, align 8, !tbaa !148
  %.not32 = icmp eq ptr %16, null
  br i1 %.not32, label %.thread, label %17

17:                                               ; preds = %14
  %18 = load ptr, ptr %16, align 8, !tbaa !153
  %.not33 = icmp eq ptr %18, null
  br i1 %.not33, label %.thread, label %19

19:                                               ; preds = %17
  %20 = tail call ptr %18(ptr noundef nonnull %0) #8
  %.not34 = icmp eq ptr %20, null
  br i1 %.not34, label %_Py_NewRef.exit, label %21

21:                                               ; preds = %19
  %22 = getelementptr i8, ptr %20, i64 8
  %.val42 = load ptr, ptr %22, align 8, !tbaa !20
  %.not57 = icmp eq ptr %.val42, @PyCoro_Type
  br i1 %.not57, label %gen_is_coroutine.exit50, label %23

23:                                               ; preds = %21
  %.not.i46 = icmp eq ptr %.val42, @PyGen_Type
  br i1 %.not.i46, label %24, label %36

24:                                               ; preds = %23
  %25 = getelementptr i8, ptr %20, i64 72
  %.val.i48 = load i64, ptr %25, align 8, !tbaa !4
  %26 = inttoptr i64 %.val.i48 to ptr
  %27 = getelementptr inbounds nuw i8, ptr %26, i64 48
  %28 = load i32, ptr %27, align 8, !tbaa !24
  %29 = and i32 %28, 256
  %.not5.not.i49 = icmp eq i32 %29, 0
  br i1 %.not5.not.i49, label %36, label %gen_is_coroutine.exit50

gen_is_coroutine.exit50:                          ; preds = %24, %21
  %30 = load ptr, ptr @PyExc_TypeError, align 8, !tbaa !32
  tail call void @PyErr_SetString(ptr noundef %30, ptr noundef nonnull @.str.1) #8
  %31 = load i32, ptr %20, align 8, !tbaa !4
  %.not.i38 = icmp sgt i32 %31, -1
  br i1 %.not.i38, label %32, label %_Py_NewRef.exit

32:                                               ; preds = %gen_is_coroutine.exit50
  %33 = add nsw i32 %31, -1
  store i32 %33, ptr %20, align 8, !tbaa !4
  %34 = icmp eq i32 %33, 0
  br i1 %34, label %35, label %_Py_NewRef.exit

35:                                               ; preds = %32
  tail call void @_Py_Dealloc(ptr noundef nonnull %20) #8
  br label %_Py_NewRef.exit

36:                                               ; preds = %23, %24
  %37 = tail call i32 @PyIter_Check(ptr noundef nonnull %20) #8
  %.not37 = icmp eq i32 %37, 0
  br i1 %.not37, label %38, label %_Py_NewRef.exit

38:                                               ; preds = %36
  %39 = load ptr, ptr @PyExc_TypeError, align 8, !tbaa !32
  %.val41 = load ptr, ptr %22, align 8, !tbaa !20
  %40 = getelementptr inbounds nuw i8, ptr %.val41, i64 24
  %41 = load ptr, ptr %40, align 8, !tbaa !155
  %42 = tail call ptr (ptr, ptr, ...) @PyErr_Format(ptr noundef %39, ptr noundef nonnull @.str.2, ptr noundef %41) #8
  %43 = load i32, ptr %20, align 8, !tbaa !4
  %.not.i = icmp sgt i32 %43, -1
  br i1 %.not.i, label %44, label %_Py_NewRef.exit

44:                                               ; preds = %38
  %45 = add nsw i32 %43, -1
  store i32 %45, ptr %20, align 8, !tbaa !4
  %46 = icmp eq i32 %45, 0
  br i1 %46, label %47, label %_Py_NewRef.exit

47:                                               ; preds = %44
  tail call void @_Py_Dealloc(ptr noundef nonnull %20) #8
  br label %_Py_NewRef.exit

.thread:                                          ; preds = %14, %17
  %48 = load ptr, ptr @PyExc_TypeError, align 8, !tbaa !32
  %49 = getelementptr inbounds nuw i8, ptr %.val43, i64 24
  %50 = load ptr, ptr %49, align 8, !tbaa !155
  %51 = tail call ptr (ptr, ptr, ...) @PyErr_Format(ptr noundef %48, ptr noundef nonnull @.str.3, ptr noundef %50) #8
  br label %_Py_NewRef.exit

_Py_NewRef.exit:                                  ; preds = %47, %44, %38, %35, %32, %gen_is_coroutine.exit50, %12, %gen_is_coroutine.exit, %19, %36, %.thread
  %.0 = phi ptr [ null, %.thread ], [ %20, %36 ], [ null, %19 ], [ %0, %gen_is_coroutine.exit ], [ %0, %12 ], [ null, %gen_is_coroutine.exit50 ], [ null, %32 ], [ null, %35 ], [ null, %38 ], [ null, %44 ], [ null, %47 ]
  ret ptr %.0
}